(dp1
S'output'
p2
S"<type 'exceptions.NameError'> name 'checkup_total' is not defined"
p3
sS'layer'
p4
S'C:\\Users\\Scorpa\\PycharmProjects\\untitled2\\web2py\\applications\\Chekailo\\views\\default/index.html'
p5
sS'code'
p6
S'response.write(\'<!DOCTYPE html>\\n<html lang="en">\\n<head>\\n    <meta http-equiv="Content-Type" content="text/html; charset=UTF-8">\\n    <!-- Meta, title, CSS, favicons, etc. -->\\n    <meta charset="utf-8">\\n    <meta http-equiv="X-UA-Compatible" content="IE=edge">\\n    <meta name="viewport" content="width=device-width, initial-scale=1">\\n    <link rel="icon" href="images/favicon.ico" type="image/ico"/>\\n\\n    <title>\', escape=False)\nresponse.write(response.title or request.application)\nresponse.write(\'</title>\\n    <!-- http://dev.w3.org/html5/markup/meta.name.html -->\\n    <meta name="application-name" content="\', escape=False)\nresponse.write(request.application)\nresponse.write(\'">\\n    <!-- Bootstrap -->\\n    <link href="\', escape=False)\nresponse.write(URL(\'static\',\'theme/vendors/bootstrap/dist/css/bootstrap.min.css\'))\nresponse.write(\'" rel="stylesheet">\\n    <!-- Font Awesome -->\\n    <link href="\', escape=False)\nresponse.write(URL(\'static\',\'theme/vendors/font-awesome/css/font-awesome.min.css\'))\nresponse.write(\'" rel="stylesheet">\\n    <!-- NProgress -->\\n    <link href="\', escape=False)\nresponse.write(URL(\'static\',\'theme/vendors/nprogress/nprogress.css\'))\nresponse.write(\'" rel="stylesheet">\\n    <!-- iCheck -->\\n    <link href="\', escape=False)\nresponse.write(URL(\'static\',\'theme/vendors/iCheck/skins/flat/green.css\'))\nresponse.write(\'" rel="stylesheet">\\n\\n    <!-- bootstrap-progressbar -->\\n    <link href="\', escape=False)\nresponse.write(URL(\'static\',\'theme/vendors/bootstrap-progressbar/css/bootstrap-progressbar-3.3.4.min.css\'))\nresponse.write(\'"\\n          rel="stylesheet">\\n    <!-- JQVMap -->\\n    <link href="\', escape=False)\nresponse.write(URL(\'static\',\'theme/vendors/jqvmap/dist/jqvmap.min.css\'))\nresponse.write(\'" rel="stylesheet"/>\\n    <!-- bootstrap-daterangepicker -->\\n    <link href="\', escape=False)\nresponse.write(URL(\'static\',\'theme/vendors/bootstrap-daterangepicker/daterangepicker.css\'))\nresponse.write(\'" rel="stylesheet">\\n\\n    <!-- Custom Theme Style -->\\n    <link href="\', escape=False)\nresponse.write(URL(\'static\',\'theme/build/css/custom.min.css\'))\nresponse.write(\'" rel="stylesheet">\\n</head>\\n\\n<body class="nav-md">\\n<div class="container body">\\n    <div class="main_container">\\n        <div class="col-md-3 left_col">\\n            <div class="left_col scroll-view">\\n                <div class="navbar nav_title" style="border: 0;">\\n                    <a href="index.html" class="site_title"><i class="fa fa-stethoscope"></i>\\n                        <span>Secure Future!</span></a>\\n                </div>\\n\\n                <div class="clearfix"></div>\\n\\n                <!-- menu profile quick info -->\\n                <div class="profile clearfix">\\n                    <div class="profile_pic">\\n                        <img src="\', escape=False)\nresponse.write(URL(\'static\', \'images/chkp_logo.jpg\'))\nresponse.write(\'" alt="..."\\n                             class="img-thumbnail profile_img">\\n                    </div>\\n                    <div class="profile_info">\\n                        <span>\', escape=False)\nresponse.write(T(\'\xd0\x9f\xd1\x80\xd0\xb8\xd0\xb2\xd0\xb5\xd1\x82!\'))\nresponse.write(\'</span>\\n                        <h2>\', escape=False)\nif auth.user:\n    response.write(auth.user.first_name)\nelse:\n    response.write(A(T(\'LOGIN\'),_href=URL(\'default\', \'index\')))\n    pass\nresponse.write(\'\\n                        </h2>\\n                    </div>\\n                </div>\\n                <!-- /menu profile quick info -->\\n                <br/>\\n                <!-- sidebar menu -->\\n                <div id="sidebar-menu" class="main_menu_side hidden-print main_menu">\\n                    <div class="menu_section">\\n                        <ul class="nav side-menu">\\n                        \', escape=False)\nfor _item in response.menu or []:\n    response.write(\'\\n                        \', escape=False)\n    if len(_item)<4 or not _item[3]:\n        response.write(\'\\n                            <li class="nav-item \', escape=False)\n        if _item[1]:\n            response.write(\'active\', escape=False)\n            pass\n        response.write(\'">\\n\\n                                <a class="nav-link" href="\', escape=False)\n        response.write(_item[2])\n        response.write(\'">\', escape=False)\n        response.write(_item[0])\n        response.write(\'</a>\\n                            </li>\\n                        \', escape=False)\n    else:\n        response.write(\'\\n                            <li class="nav-item dropdown">\\n                                <a class="nav-link dropdown-toggle" href="\', escape=False)\n        response.write(_item[2])\n        response.write(\'" data-toggle="dropdown"\\n                                   aria-haspopup="true" aria-expanded="false">\', escape=False)\n        response.write(_item[0])\n        response.write(\'</a>\\n                                <div class="dropdown-menu">\\n                                \', escape=False)\n        for _subitem in _item[3]:\n            response.write(\'\\n                                    <a class="dropdown-item" href="\', escape=False)\n            response.write(_subitem[2])\n            response.write(\'">\', escape=False)\n            response.write(_subitem[0])\n            response.write(\'</a>\\n                                \', escape=False)\n            pass\n        response.write(\'\\n                                </div>\\n                            </li>\\n                        \', escape=False)\n        pass\n    response.write(\'\\n                        \', escape=False)\n    pass\nresponse.write(\'\\n                        </ul>\\n                    </div>\\n\\n                </div>\\n                <!-- /sidebar menu -->\\n\\n                <!-- /menu footer buttons -->\\n                <div class="sidebar-footer hidden-small">\\n                    <a data-toggle="tooltip" data-placement="top" title="Settings">\\n                        <span class="glyphicon " aria-hidden="true"></span>\\n                    </a>\\n                    <a data-toggle="tooltip" data-placement="top" title="Logout"\\n                       href="\', escape=False)\nresponse.write(URL(\'default\',\'user/logout\'))\nresponse.write(\'">\\n                        <span class="glyphicon glyphicon-off" aria-hidden="true"></span>\\n                    </a>\\n                    <a data-toggle="tooltip" data-placement="top" title="FullScreen">\\n                        <span class="glyphicon n" aria-hidden="true"></span>\\n                    </a>\\n\\n                    <a data-toggle="tooltip" data-placement="top" title="">\\n                        <span class="glyphicon" aria-hidden="true"></span>\\n                    </a>\\n\\n\\n                </div>\\n                <!-- /menu footer buttons -->\\n            </div>\\n        </div>\\n\\n        <!-- top navigation -->\\n        <div class="top_nav">\\n            <div class="nav_menu">\\n                <nav>\\n                    <div class="nav toggle">\\n                        <a id="menu_toggle"><i class="fa fa-bars"></i></a>\\n                    </div>\\n\\n                    <ul class="nav navbar-nav navbar-right">\\n                        <li class="">\\n                            <a href="javascript:;" class="user-profile dropdown-toggle" data-toggle="dropdown"\\n                               aria-expanded="false">\\n                            \', escape=False)\nif auth.user:\n    response.write(auth.user.first_name)\nelse:\n    response.write(T(\'LOGIN\'))\n    pass\nresponse.write(\'\\n                                <span class=" fa fa-angle-down"></span>\\n                            </a>\\n                            <ul class="dropdown-menu dropdown-usermenu pull-right">\\n                            \', escape=False)\nif auth.user:\n    response.write(\'\\n                                <li>\\n                                    <a class="dropdown-item"\\n                                       href="\', escape=False)\n    response.write(URL(\'default\',\'user/profile\'))\n    response.write(\'">\', escape=False)\n    response.write(T(\'Profile\'))\n    response.write(\'</a></li>\\n                                <li><a class="dropdown-item"\\n                                       href="\', escape=False)\n    response.write(URL(\'default\',\'user/change_password\'))\n    response.write(\'">\', escape=False)\n    response.write(T(\'Change Password\'))\n    response.write(\'</a>\\n                                </li>\\n                                <li><a class="dropdown-item"\\n                                       href="\', escape=False)\n    response.write(URL(\'default\',\'user/logout\'))\n    response.write(\'">\', escape=False)\n    response.write(T(\'Logout\'))\n    response.write(\'</a></li>\\n                            \', escape=False)\nelse:\n    response.write(\'\\n                                <li><a class="dropdown-item" href="\', escape=False)\n    response.write(URL(\'default\',\'user/login\'))\n    response.write(\'">\', escape=False)\n    response.write(T(\'Login\'))\n    response.write(\'</a>\\n                                </li>\\n                                <li><a class="dropdown-item"\\n                                       href="\', escape=False)\n    response.write(URL(\'default\',\'user/register\'))\n    response.write(\'">\', escape=False)\n    response.write(T(\'Sign up\'))\n    response.write(\'</a></li>\\n\\n                            \', escape=False)\n    pass\nresponse.write(\'\\n                            </ul>\\n                        </li>\\n                    </ul>\\n                </nav>\\n            </div>\\n        </div>\\n        <!-- /top navigation -->\\n        <!-- Masthead ===================================== -->\\n    \', escape=False)\nresponse.write(\'\\n    \', escape=False)\nresponse.write(\'\\n        <!-- Main ========================================= -->\\n        <!-- Begin page content -->\\n        <div class="right_col" role="main" style="min-height: 657px;">\\n            <div class="col-md-12">\\n            \', escape=False)\nresponse.write(\'\\n        \', escape=False)\nresponse.write(\'\\r\\n\\r\\n\\r\\n<div class="row">\\r\\n    <div class="col-md-12">\\r\\n        <div class="x_panel">\\r\\n            <div class="x_title">\\r\\n                <h2>Transaction Summary\\r\\n                    <small>Weekly progress</small>\\r\\n                </h2>\\r\\n                <div class="filter">\\r\\n                    <div id="reportrange" class="pull-right"\\r\\n                         style="background: #fff; cursor: pointer; padding: 5px 10px; border: 1px solid #ccc">\\r\\n                        <i class="glyphicon glyphicon-calendar fa fa-calendar"></i>\\r\\n                        <span>March 17, 2018 - April 15, 2018</span> <b class="caret"></b>\\r\\n                    </div>\\r\\n                </div>\\r\\n                <div class="clearfix"></div>\\r\\n            </div>\\r\\n            <div class="x_content">\\r\\n                <div class="col-md-9 col-sm-12 col-xs-12">\\r\\n                    <div class="demo-container" style="height:280px">\\r\\n                        <div id="chart_plot_02" class="demo-placeholder" style="padding: 0px; position: relative;">\\r\\n                            <canvas class="flot-base"\\r\\n                                    style="direction: ltr; position: absolute; left: 0px; top: 0px; width: 1170px; height: 280px;"\\r\\n                                    width="1170" height="280"></canvas>\\r\\n                            <div class="flot-text"\\r\\n                                 style="position: absolute; top: 0px; left: 0px; bottom: 0px; right: 0px; font-size: smaller; color: rgb(84, 84, 84);">\\r\\n                                <div class="flot-x-axis flot-x1-axis xAxis x1Axis"\\r\\n                                     style="position: absolute; top: 0px; left: 0px; bottom: 0px; right: 0px; display: block;">\\r\\n                                    <div class="flot-tick-label tickLabel"\\r\\n                                         style="position: absolute; max-width: 97px; top: 265px; left: 70px; text-align: center;">\\r\\n                                        16/04/18\\r\\n                                    </div>\\r\\n                                    <div class="flot-tick-label tickLabel"\\r\\n                                         style="position: absolute; max-width: 97px; top: 265px; left: 182px; text-align: center;">\\r\\n                                        18/04/18\\r\\n                                    </div>\\r\\n                                    <div class="flot-tick-label tickLabel"\\r\\n                                         style="position: absolute; max-width: 97px; top: 265px; left: 294px; text-align: center;">\\r\\n                                        20/04/18\\r\\n                                    </div>\\r\\n                                    <div class="flot-tick-label tickLabel"\\r\\n                                         style="position: absolute; max-width: 97px; top: 265px; left: 406px; text-align: center;">\\r\\n                                        22/04/18\\r\\n                                    </div>\\r\\n                                    <div class="flot-tick-label tickLabel"\\r\\n                                         style="position: absolute; max-width: 97px; top: 265px; left: 518px; text-align: center;">\\r\\n                                        24/04/18\\r\\n                                    </div>\\r\\n                                    <div class="flot-tick-label tickLabel"\\r\\n                                         style="position: absolute; max-width: 97px; top: 265px; left: 631px; text-align: center;">\\r\\n                                        26/04/18\\r\\n                                    </div>\\r\\n                                    <div class="flot-tick-label tickLabel"\\r\\n                                         style="position: absolute; max-width: 97px; top: 265px; left: 743px; text-align: center;">\\r\\n                                        28/04/18\\r\\n                                    </div>\\r\\n                                    <div class="flot-tick-label tickLabel"\\r\\n                                         style="position: absolute; max-width: 97px; top: 265px; left: 855px; text-align: center;">\\r\\n                                        30/04/18\\r\\n                                    </div>\\r\\n                                    <div class="flot-tick-label tickLabel"\\r\\n                                         style="position: absolute; max-width: 97px; top: 265px; left: 967px; text-align: center;">\\r\\n                                        02/05/18\\r\\n                                    </div>\\r\\n                                    <div class="flot-tick-label tickLabel"\\r\\n                                         style="position: absolute; max-width: 97px; top: 265px; left: 1079px; text-align: center;">\\r\\n                                        04/05/18\\r\\n                                    </div>\\r\\n                                </div>\\r\\n                                <div class="flot-y-axis flot-y1-axis yAxis y1Axis"\\r\\n                                     style="position: absolute; top: 0px; left: 0px; bottom: 0px; right: 0px; display: block;">\\r\\n                                    <div class="flot-tick-label tickLabel"\\r\\n                                         style="position: absolute; top: 247px; left: 12px; text-align: right;">0\\r\\n                                    </div>\\r\\n                                    <div class="flot-tick-label tickLabel"\\r\\n                                         style="position: absolute; top: 206px; left: 6px; text-align: right;">20\\r\\n                                    </div>\\r\\n                                    <div class="flot-tick-label tickLabel"\\r\\n                                         style="position: absolute; top: 165px; left: 6px; text-align: right;">40\\r\\n                                    </div>\\r\\n                                    <div class="flot-tick-label tickLabel"\\r\\n                                         style="position: absolute; top: 124px; left: 6px; text-align: right;">60\\r\\n                                    </div>\\r\\n                                    <div class="flot-tick-label tickLabel"\\r\\n                                         style="position: absolute; top: 83px; left: 6px; text-align: right;">80\\r\\n                                    </div>\\r\\n                                    <div class="flot-tick-label tickLabel"\\r\\n                                         style="position: absolute; top: 42px; left: 0px; text-align: right;">100\\r\\n                                    </div>\\r\\n                                    <div class="flot-tick-label tickLabel"\\r\\n                                         style="position: absolute; top: 1px; left: 0px; text-align: right;">120\\r\\n                                    </div>\\r\\n                                </div>\\r\\n                            </div>\\r\\n                            <canvas class="flot-overlay"\\r\\n                                    style="direction: ltr; position: absolute; left: 0px; top: 0px; width: 1170px; height: 280px;"\\r\\n                                    width="1170" height="280"></canvas>\\r\\n                            <div class="legend">\\r\\n                                <div style="position: absolute; width: 71px; height: 15px; top: -17px; right: 21px; background-color: rgb(255, 255, 255); opacity: 0.85;"></div>\\r\\n                                <table style="position:absolute;top:-17px;right:21px;;font-size:smaller;color:#3f3f3f">\\r\\n                                    <tbody>\\r\\n                                    <tr>\\r\\n                                        <td class="legendColorBox">\\r\\n                                            <div style="border:1px solid null;padding:1px">\\r\\n                                                <div style="width:4px;height:0;border:5px solid rgb(150,202,89);overflow:hidden"></div>\\r\\n                                            </div>\\r\\n                                        </td>\\r\\n                                        <td class="legendLabel">Email Sent&nbsp;&nbsp;</td>\\r\\n                                    </tr>\\r\\n                                    </tbody>\\r\\n                                </table>\\r\\n                            </div>\\r\\n                        </div>\\r\\n                    </div>\\r\\n                    <div class="tiles">\\r\\n                        <div class="col-md-4 tile">\\r\\n                            <span>\\xd0\\x92\\xd1\\x81\\xd0\\xb5\\xd0\\xb3\\xd0\\xbe CheckUP \\xd0\\xbe\\xd1\\x82\\xd1\\x87\\xd0\\xb5\\xd1\\x82\\xd0\\xbe\\xd0\\xb2</span>\\r\\n                            <h2>\', escape=False)\nresponse.write(checkup_total)\nresponse.write(\'</h2>\\r\\n                            <span class="sparkline11 graph" style="height: 160px;"><canvas width="198" height="40"\\r\\n                                                                                           style="display: inline-block; width: 198px; height: 40px; vertical-align: top;"></canvas></span>\\r\\n                        </div>\\r\\n                        <div class="col-md-4 tile">\\r\\n                            <span>\\xd0\\xa3\\xd1\\x87\\xd0\\xb0\\xd1\\x81\\xd1\\x82\\xd0\\xb2\\xd1\\x83\\xd1\\x8e\\xd1\\x89\\xd0\\xb8\\xd1\\x85 \\xd0\\xbf\\xd0\\xb0\\xd1\\x80\\xd1\\x82\\xd0\\xbd\\xd0\\xb5\\xd1\\x80\\xd0\\xbe\\xd0\\xb2</span>\\r\\n                            <h2>\', escape=False)\nresponse.write(partners_total)\nresponse.write(\'</h2>\\r\\n                            <span class="sparkline22 graph" style="height: 160px;"><canvas width="200" height="40"\\r\\n                                                                                           style="display: inline-block; width: 200px; height: 40px; vertical-align: top;"></canvas></span>\\r\\n                        </div>\\r\\n                        <div class="col-md-4 tile">\\r\\n                            <span>Total Sessions</span>\\r\\n                            <h2>231,809</h2>\\r\\n                            <span class="sparkline11 graph" style="height: 160px;"><canvas width="198" height="40"\\r\\n                                                                                           style="display: inline-block; width: 198px; height: 40px; vertical-align: top;"></canvas></span>\\r\\n                        </div>\\r\\n                    </div>\\r\\n\\r\\n                </div>\\r\\n\\r\\n\\r\\n            </div>\\r\\n        </div>\\r\\n    </div>\\r\\n</div>\', escape=False)\nresponse.write(\'\\n        \', escape=False)\nresponse.write(\'\\n        \', escape=False)\nresponse.write(response.toolbar() if configuration.get(\'app.toolbar\') else \'\')\nresponse.write(\'\\n            </div>\\n        </div>\\n        <!-- /page content -->\\n\\n        <!-- footer content -->\\n        <footer>\\n            <div class="pull-right">\\n                Gentelella - Bootstrap Admin Template by <a href="https://colorlib.com">Colorlib</a>\\n            </div>\\n            <div class="clearfix"></div>\\n        </footer>\\n        <!-- /footer content -->\\n    </div>\\n    <!-- The javascript =============================== -->\\n    <script src="\', escape=False)\nresponse.write(URL(\'static\',\'js/bootstrap.min.js\'))\nresponse.write(\'"></script>\\n    <script src="\', escape=False)\nresponse.write(URL(\'static\',\'js/web2py-bootstrap4.js\'))\nresponse.write(\'"></script>\\n\', escape=False)\nresponse.write(\'\\n\', escape=False)\nif response.google_analytics_id:\n    response.write(\'\\n    <!-- Analytics ==================================== -->\\n    <script src="\', escape=False)\n    response.write(URL(\'static\',\'js/analytics.min.js\'))\n    response.write(\'"></script>\\n    <script type="text/javascript">\\n        analytics.initialize({\\n            \\\'Google Analytics\\\': {trackingId: \\\'\', escape=False)\n    response.write(response.google_analytics_id)\n    response.write("\'}\\n        });\\n    </script>\\n", escape=False)\n    pass\nresponse.write(\'\\n    <!-- Share ============================y============ -->\\n    <script src="\', escape=False)\nresponse.write(URL(\'static\',\'js/share.js\',vars=dict(static=URL(\'static\',\'images\'))))\nresponse.write(\'"></script>\\n</div>\\n\\n<!-- jQuery -->\\n<script src="\', escape=False)\nresponse.write(URL(\'static\',\'theme/vendors/jquery/dist/jquery.min.js\'))\nresponse.write(\'"></script>\\n<!-- Bootstrap -->\\n<script src="\', escape=False)\nresponse.write(URL(\'static\',\'theme/vendors/bootstrap/dist/js/bootstrap.min.js\'))\nresponse.write(\'"></script>\\n<!-- FastClick -->\\n<script src="\', escape=False)\nresponse.write(URL(\'static\',\'theme/vendors/fastclick/lib/fastclick.js\'))\nresponse.write(\'"></script>\\n<!-- NProgress -->\\n<script src="\', escape=False)\nresponse.write(URL(\'static\',\'theme/vendors/nprogress/nprogress.js\'))\nresponse.write(\'"></script>\\n<!-- Chart.js -->\\n<script src="\', escape=False)\nresponse.write(URL(\'static\',\'theme/vendors/Chart.js/dist/Chart.min.js\'))\nresponse.write(\'"></script>\\n<!-- gauge.js -->\\n<script src="\', escape=False)\nresponse.write(URL(\'static\',\'theme/vendors/gauge.js/dist/gauge.min.js\'))\nresponse.write(\'"></script>\\n<!-- bootstrap-progressbar -->\\n<script src="\', escape=False)\nresponse.write(URL(\'static\',\'theme/vendors/bootstrap-progressbar/bootstrap-progressbar.min.js\'))\nresponse.write(\'"></script>\\n<!-- iCheck -->\\n<script src="\', escape=False)\nresponse.write(URL(\'static\',\'theme/vendors/iCheck/icheck.min.js\'))\nresponse.write(\'"></script>\\n<!-- Skycons -->\\n<script src="\', escape=False)\nresponse.write(URL(\'static\',\'theme/vendors/skycons/skycons.js\'))\nresponse.write(\'"></script>\\n<!-- Flot -->\\n<script src="\', escape=False)\nresponse.write(URL(\'static\',\'theme/vendors/Flot/jquery.flot.js\'))\nresponse.write(\'"></script>\\n<script src="\', escape=False)\nresponse.write(URL(\'static\',\'theme/vendors/Flot/jquery.flot.pie.js\'))\nresponse.write(\'"></script>\\n<script src="\', escape=False)\nresponse.write(URL(\'static\',\'theme/vendors/Flot/jquery.flot.time.js\'))\nresponse.write(\'"></script>\\n<script src="\', escape=False)\nresponse.write(URL(\'static\',\'theme/vendors/Flot/jquery.flot.stack.js\'))\nresponse.write(\'"></script>\\n<script src="\', escape=False)\nresponse.write(URL(\'static\',\'theme/vendors/Flot/jquery.flot.resize.js\'))\nresponse.write(\'"></script>\\n<!-- Flot plugins -->\\n<script src="\', escape=False)\nresponse.write(URL(\'static\',\'theme/vendors/flot.orderbars/js/jquery.flot.orderBars.js\'))\nresponse.write(\'"></script>\\n<script src="\', escape=False)\nresponse.write(URL(\'static\',\'theme/vendors/flot-spline/js/jquery.flot.spline.min.js\'))\nresponse.write(\'"></script>\\n<script src="\', escape=False)\nresponse.write(URL(\'static\',\'theme/vendors/flot.curvedlines/curvedLines.js\'))\nresponse.write(\'"></script>\\n<!-- DateJS -->\\n<script src="\', escape=False)\nresponse.write(URL(\'static\',\'theme/vendors/DateJS/build/date.js\'))\nresponse.write(\'"></script>\\n<!-- JQVMap -->\\n<script src="\', escape=False)\nresponse.write(URL(\'static\',\'theme/vendors/jqvmap/dist/jquery.vmap.js\'))\nresponse.write(\'"></script>\\n<script src="\', escape=False)\nresponse.write(URL(\'static\',\'theme/vendors/jqvmap/dist/maps/jquery.vmap.world.js\'))\nresponse.write(\'"></script>\\n<script src="\', escape=False)\nresponse.write(URL(\'static\',\'theme/vendors/jqvmap/examples/js/jquery.vmap.sampledata.js\'))\nresponse.write(\'"></script>\\n<!-- bootstrap-daterangepicker -->\\n<script src="\', escape=False)\nresponse.write(URL(\'static\',\'theme/vendors/moment/min/moment.min.js\'))\nresponse.write(\'"></script>\\n<script src="\', escape=False)\nresponse.write(URL(\'static\',\'theme/vendors/bootstrap-daterangepicker/daterangepicker.js\'))\nresponse.write(\'"></script>\\n\\n<!-- Custom Theme Scripts -->\\n<script src="\', escape=False)\nresponse.write(URL(\'static\',\'theme/build/js/custom.min.js\'))\nresponse.write(\'"></script>\\n\\n</body>\\n</html>\\n\', escape=False)'
p7
sS'snapshot'
p8
(dp9
S'exception'
p10
(dp11
S'__getslice__'
p12
S"<method-wrapper '__getslice__' of exceptions.NameError object>"
p13
sS'__str__'
p14
S"<method-wrapper '__str__' of exceptions.NameError object>"
p15
sS'__reduce__'
p16
S'<built-in method __reduce__ of exceptions.NameError object>'
p17
sS'__dict__'
p18
S'{}'
p19
sS'message'
p20
S'"name \'checkup_total\' is not defined"'
p21
sS'__sizeof__'
p22
S'<built-in method __sizeof__ of exceptions.NameError object>'
p23
sS'__init__'
p24
S"<method-wrapper '__init__' of exceptions.NameError object>"
p25
sS'__setattr__'
p26
S"<method-wrapper '__setattr__' of exceptions.NameError object>"
p27
sS'__reduce_ex__'
p28
S'<built-in method __reduce_ex__ of exceptions.NameError object>'
p29
sS'__new__'
p30
S'<built-in method __new__ of type object>'
p31
sS'__format__'
p32
S'<built-in method __format__ of exceptions.NameError object>'
p33
sS'__class__'
p34
S"<type 'exceptions.NameError'>"
p35
sS'__doc__'
p36
S"'Name not found globally.'"
p37
sS'__getitem__'
p38
S"<method-wrapper '__getitem__' of exceptions.NameError object>"
p39
sS'__setstate__'
p40
S'<built-in method __setstate__ of exceptions.NameError object>'
p41
sS'__getattribute__'
p42
S"<method-wrapper '__getattribute__' of exceptions.NameError object>"
p43
sS'args'
p44
S'("name \'checkup_total\' is not defined",)'
p45
sS'__subclasshook__'
p46
S'<built-in method __subclasshook__ of type object>'
p47
sS'__unicode__'
p48
S'<built-in method __unicode__ of exceptions.NameError object>'
p49
sS'__delattr__'
p50
S"<method-wrapper '__delattr__' of exceptions.NameError object>"
p51
sS'__repr__'
p52
S"<method-wrapper '__repr__' of exceptions.NameError object>"
p53
sS'__hash__'
p54
S"<method-wrapper '__hash__' of exceptions.NameError object>"
p55
ssS'evalue'
p56
S"name 'checkup_total' is not defined"
p57
sS'request'
p58
cgluon.html
XML_unpickle
p59
(S's\x1en\x00\x00<div><table><tr><td style="font-weight:bold;vertical-align:top;">ajax</td><td style="vertical-align:top;">:</td><td><div>False</div></td></tr><tr><td style="font-weight:bold;vertical-align:top;">application</td><td style="vertical-align:top;">:</td><td><div>Chekailo</div></td></tr><tr><td style="font-weight:bold;vertical-align:top;">args</td><td style="vertical-align:top;">:</td><td><div><table></table></div></td></tr><tr><td style="font-weight:bold;vertical-align:top;">cid</td><td style="vertical-align:top;">:</td><td><div>None</div></td></tr><tr><td style="font-weight:bold;vertical-align:top;">client</td><td style="vertical-align:top;">:</td><td><div>127.0.0.1</div></td></tr><tr><td style="font-weight:bold;vertical-align:top;">controller</td><td style="vertical-align:top;">:</td><td><div>default</div></td></tr><tr><td style="font-weight:bold;vertical-align:top;">cookies</td><td style="vertical-align:top;">:</td><td><div><table><tr><td style="font-weight:bold;vertical-align:top;">adminLanguage</td><td style="vertical-align:top;">:</td><td><div>en<table><tr><td style="font-weight:bold;vertical-align:top;">comment</td><td style="vertical-align:top;">:</td><td><div></div></td></tr><tr><td style="font-weight:bold;vertical-align:top;">domain</td><td style="vertical-align:top;">:</td><td><div></div></td></tr><tr><td style="font-weight:bold;vertical-align:top;">expires</td><td style="vertical-align:top;">:</td><td><div></div></td></tr><tr><td style="font-weight:bold;vertical-align:top;">httponly</td><td style="vertical-align:top;">:</td><td><div></div></td></tr><tr><td style="font-weight:bold;vertical-align:top;">max-age</td><td style="vertical-align:top;">:</td><td><div></div></td></tr><tr><td style="font-weight:bold;vertical-align:top;">path</td><td style="vertical-align:top;">:</td><td><div></div></td></tr><tr><td style="font-weight:bold;vertical-align:top;">secure</td><td style="vertical-align:top;">:</td><td><div></div></td></tr><tr><td style="font-weight:bold;vertical-align:top;">version</td><td style="vertical-align:top;">:</td><td><div></div></td></tr></table></div></td></tr><tr><td style="font-weight:bold;vertical-align:top;">session_id_admin</td><td style="vertical-align:top;">:</td><td><div>127.0.0.1-c9b1133d-d230-46df-a0b1-b6d9b317a469<table><tr><td style="font-weight:bold;vertical-align:top;">comment</td><td style="vertical-align:top;">:</td><td><div></div></td></tr><tr><td style="font-weight:bold;vertical-align:top;">domain</td><td style="vertical-align:top;">:</td><td><div></div></td></tr><tr><td style="font-weight:bold;vertical-align:top;">expires</td><td style="vertical-align:top;">:</td><td><div></div></td></tr><tr><td style="font-weight:bold;vertical-align:top;">httponly</td><td style="vertical-align:top;">:</td><td><div></div></td></tr><tr><td style="font-weight:bold;vertical-align:top;">max-age</td><td style="vertical-align:top;">:</td><td><div></div></td></tr><tr><td style="font-weight:bold;vertical-align:top;">path</td><td style="vertical-align:top;">:</td><td><div></div></td></tr><tr><td style="font-weight:bold;vertical-align:top;">secure</td><td style="vertical-align:top;">:</td><td><div></div></td></tr><tr><td style="font-weight:bold;vertical-align:top;">version</td><td style="vertical-align:top;">:</td><td><div></div></td></tr></table></div></td></tr><tr><td style="font-weight:bold;vertical-align:top;">session_id_chekailo</td><td style="vertical-align:top;">:</td><td><div>127.0.0.1-8da138d6-e636-4b12-b8d9-0ec076840060<table><tr><td style="font-weight:bold;vertical-align:top;">comment</td><td style="vertical-align:top;">:</td><td><div></div></td></tr><tr><td style="font-weight:bold;vertical-align:top;">domain</td><td style="vertical-align:top;">:</td><td><div></div></td></tr><tr><td style="font-weight:bold;vertical-align:top;">expires</td><td style="vertical-align:top;">:</td><td><div></div></td></tr><tr><td style="font-weight:bold;vertical-align:top;">httponly</td><td style="vertical-align:top;">:</td><td><div></div></td></tr><tr><td style="font-weight:bold;vertical-align:top;">max-age</td><td style="vertical-align:top;">:</td><td><div></div></td></tr><tr><td style="font-weight:bold;vertical-align:top;">path</td><td style="vertical-align:top;">:</td><td><div></div></td></tr><tr><td style="font-weight:bold;vertical-align:top;">secure</td><td style="vertical-align:top;">:</td><td><div></div></td></tr><tr><td style="font-weight:bold;vertical-align:top;">version</td><td style="vertical-align:top;">:</td><td><div></div></td></tr></table></div></td></tr><tr><td style="font-weight:bold;vertical-align:top;">session_id_chkpportal</td><td style="vertical-align:top;">:</td><td><div>127.0.0.1-51d2dd89-33dd-4c00-8df6-0a14195a5c7f<table><tr><td style="font-weight:bold;vertical-align:top;">comment</td><td style="vertical-align:top;">:</td><td><div></div></td></tr><tr><td style="font-weight:bold;vertical-align:top;">domain</td><td style="vertical-align:top;">:</td><td><div></div></td></tr><tr><td style="font-weight:bold;vertical-align:top;">expires</td><td style="vertical-align:top;">:</td><td><div></div></td></tr><tr><td style="font-weight:bold;vertical-align:top;">httponly</td><td style="vertical-align:top;">:</td><td><div></div></td></tr><tr><td style="font-weight:bold;vertical-align:top;">max-age</td><td style="vertical-align:top;">:</td><td><div></div></td></tr><tr><td style="font-weight:bold;vertical-align:top;">path</td><td style="vertical-align:top;">:</td><td><div></div></td></tr><tr><td style="font-weight:bold;vertical-align:top;">secure</td><td style="vertical-align:top;">:</td><td><div></div></td></tr><tr><td style="font-weight:bold;vertical-align:top;">version</td><td style="vertical-align:top;">:</td><td><div></div></td></tr></table></div></td></tr></table></div></td></tr><tr><td style="font-weight:bold;vertical-align:top;">env</td><td style="vertical-align:top;">:</td><td><div><table><tr><td style="font-weight:bold;vertical-align:top;">HTTP_ACCEPT</td><td style="vertical-align:top;">:</td><td><div>text/html,application/xhtml+xml,application/xml;q=0.9,image/webp,image/apng,*/*;q=0.8</div></td></tr><tr><td style="font-weight:bold;vertical-align:top;">HTTP_ACCEPT_ENCODING</td><td style="vertical-align:top;">:</td><td><div>gzip, deflate, br</div></td></tr><tr><td style="font-weight:bold;vertical-align:top;">HTTP_ACCEPT_LANGUAGE</td><td style="vertical-align:top;">:</td><td><div>ru-RU,ru;q=0.9,en-US;q=0.8,en;q=0.7</div></td></tr><tr><td style="font-weight:bold;vertical-align:top;">HTTP_CACHE_CONTROL</td><td style="vertical-align:top;">:</td><td><div>no-cache</div></td></tr><tr><td style="font-weight:bold;vertical-align:top;">HTTP_CONNECTION</td><td style="vertical-align:top;">:</td><td><div>keep-alive</div></td></tr><tr><td style="font-weight:bold;vertical-align:top;">HTTP_COOKIE</td><td style="vertical-align:top;">:</td><td><div>session_id_admin=127.0.0.1-c9b1133d-d230-46df-a0b1-b6d9b317a469; session_id_chkpportal=127.0.0.1-51d2dd89-33dd-4c00-8df6-0a14195a5c7f; adminLanguage=en; session_id_chekailo=127.0.0.1-8da138d6-e636-4b12-b8d9-0ec076840060</div></td></tr><tr><td style="font-weight:bold;vertical-align:top;">HTTP_DNT</td><td style="vertical-align:top;">:</td><td><div>1</div></td></tr><tr><td style="font-weight:bold;vertical-align:top;">HTTP_HOST</td><td style="vertical-align:top;">:</td><td><div>127.0.0.1:8000</div></td></tr><tr><td style="font-weight:bold;vertical-align:top;">HTTP_PRAGMA</td><td style="vertical-align:top;">:</td><td><div>no-cache</div></td></tr><tr><td style="font-weight:bold;vertical-align:top;">HTTP_REFERER</td><td style="vertical-align:top;">:</td><td><div>http://127.0.0.1:8000/Chekailo/default/user/login?_next=/Chekailo/default/index</div></td></tr><tr><td style="font-weight:bold;vertical-align:top;">HTTP_UPGRADE_INSECURE_REQUESTS</td><td style="vertical-align:top;">:</td><td><div>1</div></td></tr><tr><td style="font-weight:bold;vertical-align:top;">HTTP_USER_AGENT</td><td style="vertical-align:top;">:</td><td><div>Mozilla/5.0 (Windows NT 10.0; Win64; x64) AppleWebKit/537.36 (KHTML, like Gecko) Chrome/65.0.3325.181 Safari/537.36</div></td></tr><tr><td style="font-weight:bold;vertical-align:top;">PATH_INFO</td><td style="vertical-align:top;">:</td><td><div>/Chekailo/default/index</div></td></tr><tr><td style="font-weight:bold;vertical-align:top;">QUERY_STRING</td><td style="vertical-align:top;">:</td><td><div></div></td></tr><tr><td style="font-weight:bold;vertical-align:top;">REMOTE_ADDR</td><td style="vertical-align:top;">:</td><td><div>127.0.0.1</div></td></tr><tr><td style="font-weight:bold;vertical-align:top;">REMOTE_PORT</td><td style="vertical-align:top;">:</td><td><div>57590</div></td></tr><tr><td style="font-weight:bold;vertical-align:top;">REQUEST_METHOD</td><td style="vertical-align:top;">:</td><td><div>GET</div></td></tr><tr><td style="font-weight:bold;vertical-align:top;">SCRIPT_NAME</td><td style="vertical-align:top;">:</td><td><div></div></td></tr><tr><td style="font-weight:bold;vertical-align:top;">SERVER_NAME</td><td style="vertical-align:top;">:</td><td><div>Scorpa-PC</div></td></tr><tr><td style="font-weight:bold;vertical-align:top;">SERVER_PORT</td><td style="vertical-align:top;">:</td><td><div>8000</div></td></tr><tr><td style="font-weight:bold;vertical-align:top;">SERVER_PROTOCOL</td><td style="vertical-align:top;">:</td><td><div>HTTP/1.1</div></td></tr><tr><td style="font-weight:bold;vertical-align:top;">SERVER_SOFTWARE</td><td style="vertical-align:top;">:</td><td><div>Rocket 1.2.6</div></td></tr><tr><td style="font-weight:bold;vertical-align:top;">app_folders</td><td style="vertical-align:top;">:</td><td><div>set([&#x27;C:\\\\Users\\\\Scorpa\\\\PycharmProjects\\\\untitled2\\\\web2py\\\\applications\\\\CHKPportal\\\\&#x27;, &#x27;C:\\\\Users\\\\Scorpa\\\\PycharmProjects\\\\untitled2\\\\web2py\\\\applications\\\\Chekailo\\\\&#x27;, &#x27;C:\\\\Users\\\\Scorpa\\\\PycharmProjects\\\\untitled2\\\\web2py\\\\applications\\\\welcome\\\\&#x27;, &#x27;C:\\\\Users\\\\Scorpa\\\\PycharmProjects\\\\untitled2\\\\web2py\\\\applications\\\\admin\\\\&#x27;])</div></td></tr><tr><td style="font-weight:bold;vertical-align:top;">applications_parent</td><td style="vertical-align:top;">:</td><td><div>C:\\Users\\Scorpa\\PycharmProjects\\untitled2\\web2py</div></td></tr><tr><td style="font-weight:bold;vertical-align:top;">cmd_args</td><td style="vertical-align:top;">:</td><td><div><table></table></div></td></tr><tr><td style="font-weight:bold;vertical-align:top;">cmd_options</td><td style="vertical-align:top;">:</td><td><div>&lt;Values at 0x43d7850: {&#x27;verbose&#x27;: False, &#x27;ip&#x27;: &#x27;127.0.0.1&#x27;, &#x27;debuglevel&#x27;: 30, &#x27;with_scheduler&#x27;: False, &#x27;shutdown_timeout&#x27;: 5, &#x27;taskbar&#x27;: False, &#x27;with_coverage&#x27;: False, &#x27;pid_filename&#x27;: &#x27;httpserver.pid&#x27;, &#x27;maxthreads&#x27;: None, &#x27;softcron&#x27;: False, &#x27;server_name&#x27;: &#x27;Scorpa-PC&#x27;, &#x27;bpython&#x27;: False, &#x27;nogui&#x27;: False, &#x27;port&#x27;: 8000, &#x27;print_errors&#x27;: False, &#x27;extcron&#x27;: False, &#x27;runcron&#x27;: False, &#x27;run_system_tests&#x27;: False, &#x27;test&#x27;: None, &#x27;folder&#x27;: &#x27;C:\\\\Users\\\\Scorpa\\\\PycharmProjects\\\\untitled2\\\\web2py&#x27;, &#x27;config&#x27;: &#x27;&#x27;, &#x27;minthreads&#x27;: None, &#x27;shell&#x27;: None, &#x27;run&#x27;: &#x27;&#x27;, &#x27;log_filename&#x27;: &#x27;httpserver.log&#x27;, &#x27;profiler_dir&#x27;: None, &#x27;args&#x27;: [&#x27;&#x27;], &#x27;socket_timeout&#x27;: 5, &#x27;ssl_ca_certificate&#x27;: None, &#x27;scheduler&#x27;: None, &#x27;interfaces&#x27;: None, &#x27;ssl_private_key&#x27;: &#x27;&#x27;, &#x27;gae&#x27;: None, &#x27;password&#x27;: &#x27;******&#x27;, &#x27;request_queue_size&#x27;: 5, &#x27;ssl_certificate&#x27;: &#x27;&#x27;, &#x27;cronjob&#x27;: False, &#x27;numthreads&#x27;: None, &#x27;quiet&#x27;: False, &#x27;import_models&#x27;: False, &#x27;timeout&#x27;: 10, &#x27;plain&#x27;: False, &#x27;nobanner&#x27;: False}&gt;</div></td></tr><tr><td style="font-weight:bold;vertical-align:top;">db_sessions</td><td style="vertical-align:top;">:</td><td><div>set([])</div></td></tr><tr><td style="font-weight:bold;vertical-align:top;">debugging</td><td style="vertical-align:top;">:</td><td><div>False</div></td></tr><tr><td style="font-weight:bold;vertical-align:top;">gluon_parent</td><td style="vertical-align:top;">:</td><td><div>C:\\Users\\Scorpa\\PycharmProjects\\untitled2\\web2py</div></td></tr><tr><td style="font-weight:bold;vertical-align:top;">http_accept</td><td style="vertical-align:top;">:</td><td><div>text/html,application/xhtml+xml,application/xml;q=0.9,image/webp,image/apng,*/*;q=0.8</div></td></tr><tr><td style="font-weight:bold;vertical-align:top;">http_accept_encoding</td><td style="vertical-align:top;">:</td><td><div>gzip, deflate, br</div></td></tr><tr><td style="font-weight:bold;vertical-align:top;">http_accept_language</td><td style="vertical-align:top;">:</td><td><div>ru-RU,ru;q=0.9,en-US;q=0.8,en;q=0.7</div></td></tr><tr><td style="font-weight:bold;vertical-align:top;">http_cache_control</td><td style="vertical-align:top;">:</td><td><div>no-cache</div></td></tr><tr><td style="font-weight:bold;vertical-align:top;">http_connection</td><td style="vertical-align:top;">:</td><td><div>keep-alive</div></td></tr><tr><td style="font-weight:bold;vertical-align:top;">http_cookie</td><td style="vertical-align:top;">:</td><td><div>session_id_admin=127.0.0.1-c9b1133d-d230-46df-a0b1-b6d9b317a469; session_id_chkpportal=127.0.0.1-51d2dd89-33dd-4c00-8df6-0a14195a5c7f; adminLanguage=en; session_id_chekailo=127.0.0.1-8da138d6-e636-4b12-b8d9-0ec076840060</div></td></tr><tr><td style="font-weight:bold;vertical-align:top;">http_dnt</td><td style="vertical-align:top;">:</td><td><div>1</div></td></tr><tr><td style="font-weight:bold;vertical-align:top;">http_host</td><td style="vertical-align:top;">:</td><td><div>127.0.0.1:8000</div></td></tr><tr><td style="font-weight:bold;vertical-align:top;">http_pragma</td><td style="vertical-align:top;">:</td><td><div>no-cache</div></td></tr><tr><td style="font-weight:bold;vertical-align:top;">http_referer</td><td style="vertical-align:top;">:</td><td><div>http://127.0.0.1:8000/Chekailo/default/user/login?_next=/Chekailo/default/index</div></td></tr><tr><td style="font-weight:bold;vertical-align:top;">http_upgrade_insecure_requests</td><td style="vertical-align:top;">:</td><td><div>1</div></td></tr><tr><td style="font-weight:bold;vertical-align:top;">http_user_agent</td><td style="vertical-align:top;">:</td><td><div>Mozilla/5.0 (Windows NT 10.0; Win64; x64) AppleWebKit/537.36 (KHTML, like Gecko) Chrome/65.0.3325.181 Safari/537.36</div></td></tr><tr><td style="font-weight:bold;vertical-align:top;">is_jython</td><td style="vertical-align:top;">:</td><td><div>False</div></td></tr><tr><td style="font-weight:bold;vertical-align:top;">is_py2</td><td style="vertical-align:top;">:</td><td><div>True</div></td></tr><tr><td style="font-weight:bold;vertical-align:top;">is_pypy</td><td style="vertical-align:top;">:</td><td><div>False</div></td></tr><tr><td style="font-weight:bold;vertical-align:top;">is_source</td><td style="vertical-align:top;">:</td><td><div>True</div></td></tr><tr><td style="font-weight:bold;vertical-align:top;">local_hosts</td><td style="vertical-align:top;">:</td><td><div><table><tr><td><div>fe80::5efe:169.254.152.183%5</div></td></tr><tr><td><div>::1</div></td></tr><tr><td><div>169.254.152.183</div></td></tr><tr><td><div>fe80::7d01:9d7:49f5:4bcf%26</div></td></tr><tr><td><div>fe80::d878:23ac:968e:27b3%12</div></td></tr><tr><td><div>127.0.0.1</div></td></tr><tr><td><div>172.16.32.250</div></td></tr><tr><td><div>fe80::5efe:172.16.32.250%20</div></td></tr><tr><td><div>fe80::5efe:192.168.153.1%21</div></td></tr><tr><td><div>fe80::5efe:169.254.45.213%13</div></td></tr><tr><td><div>Scorpa-PC</div></td></tr><tr><td><div>fe80::6043:9db8:30cd:98b7%3</div></td></tr><tr><td><div>2001:0:9d38:6abd:8d7:753c:a64d:eccc</div></td></tr><tr><td><div>fe80::8d7:753c:a64d:eccc%15</div></td></tr><tr><td><div>192.168.118.1</div></td></tr><tr><td><div>fe80::5efe:192.168.118.1%35</div></td></tr><tr><td><div>::ffff:127.0.0.1</div></td></tr><tr><td><div>192.168.153.1</div></td></tr><tr><td><div>169.254.45.213</div></td></tr><tr><td><div>fe80::80e7:6585:1e51:2dd5%28</div></td></tr><tr><td><div>fe80::5efe:169.254.157.80%32</div></td></tr><tr><td><div>169.254.157.80</div></td></tr></table></div></td></tr><tr><td style="font-weight:bold;vertical-align:top;">path_info</td><td style="vertical-align:top;">:</td><td><div>/Chekailo/default/index</div></td></tr><tr><td style="font-weight:bold;vertical-align:top;">query_string</td><td style="vertical-align:top;">:</td><td><div></div></td></tr><tr><td style="font-weight:bold;vertical-align:top;">remote_addr</td><td style="vertical-align:top;">:</td><td><div>127.0.0.1</div></td></tr><tr><td style="font-weight:bold;vertical-align:top;">remote_port</td><td style="vertical-align:top;">:</td><td><div>57590</div></td></tr><tr><td style="font-weight:bold;vertical-align:top;">request_method</td><td style="vertical-align:top;">:</td><td><div>GET</div></td></tr><tr><td style="font-weight:bold;vertical-align:top;">request_uri</td><td style="vertical-align:top;">:</td><td><div>/Chekailo/default/index</div></td></tr><tr><td style="font-weight:bold;vertical-align:top;">script_name</td><td style="vertical-align:top;">:</td><td><div></div></td></tr><tr><td style="font-weight:bold;vertical-align:top;">server_name</td><td style="vertical-align:top;">:</td><td><div>Scorpa-PC</div></td></tr><tr><td style="font-weight:bold;vertical-align:top;">server_port</td><td style="vertical-align:top;">:</td><td><div>8000</div></td></tr><tr><td style="font-weight:bold;vertical-align:top;">server_protocol</td><td style="vertical-align:top;">:</td><td><div>HTTP/1.1</div></td></tr><tr><td style="font-weight:bold;vertical-align:top;">server_software</td><td style="vertical-align:top;">:</td><td><div>Rocket 1.2.6</div></td></tr><tr><td style="font-weight:bold;vertical-align:top;">web2py_path</td><td style="vertical-align:top;">:</td><td><div>C:\\Users\\Scorpa\\PycharmProjects\\untitled2\\web2py</div></td></tr><tr><td style="font-weight:bold;vertical-align:top;">web2py_version</td><td style="vertical-align:top;">:</td><td><div>2.16.1-stable+timestamp.2017.11.14.05.54.25</div></td></tr><tr><td style="font-weight:bold;vertical-align:top;">wsgi.errors</td><td style="vertical-align:top;">:</td><td><div>&lt;open file &#x27;&lt;stderr&gt;&#x27;, mode &#x27;w&#x27; at 0x0095D0D0&gt;</div></td></tr><tr><td style="font-weight:bold;vertical-align:top;">wsgi.file_wrapper</td><td style="vertical-align:top;">:</td><td><div>&lt;class wsgiref.util.FileWrapper at 0x03ABC490&gt;</div></td></tr><tr><td style="font-weight:bold;vertical-align:top;">wsgi.input</td><td style="vertical-align:top;">:</td><td><div>&lt;socket._fileobject object at 0x0ED980F0&gt;</div></td></tr><tr><td style="font-weight:bold;vertical-align:top;">wsgi.multiprocess</td><td style="vertical-align:top;">:</td><td><div>False</div></td></tr><tr><td style="font-weight:bold;vertical-align:top;">wsgi.multithread</td><td style="vertical-align:top;">:</td><td><div>True</div></td></tr><tr><td style="font-weight:bold;vertical-align:top;">wsgi.run_once</td><td style="vertical-align:top;">:</td><td><div>False</div></td></tr><tr><td style="font-weight:bold;vertical-align:top;">wsgi.url_scheme</td><td style="vertical-align:top;">:</td><td><div>http</div></td></tr><tr><td style="font-weight:bold;vertical-align:top;">wsgi.version</td><td style="vertical-align:top;">:</td><td><div><table><tr><td><div>1</div></td></tr><tr><td><div>0</div></td></tr></table></div></td></tr><tr><td style="font-weight:bold;vertical-align:top;">wsgi_errors</td><td style="vertical-align:top;">:</td><td><div>&lt;open file &#x27;&lt;stderr&gt;&#x27;, mode &#x27;w&#x27; at 0x0095D0D0&gt;</div></td></tr><tr><td style="font-weight:bold;vertical-align:top;">wsgi_file_wrapper</td><td style="vertical-align:top;">:</td><td><div>&lt;class wsgiref.util.FileWrapper at 0x03ABC490&gt;</div></td></tr><tr><td style="font-weight:bold;vertical-align:top;">wsgi_input</td><td style="vertical-align:top;">:</td><td><div>&lt;socket._fileobject object at 0x0ED980F0&gt;</div></td></tr><tr><td style="font-weight:bold;vertical-align:top;">wsgi_multiprocess</td><td style="vertical-align:top;">:</td><td><div>False</div></td></tr><tr><td style="font-weight:bold;vertical-align:top;">wsgi_multithread</td><td style="vertical-align:top;">:</td><td><div>True</div></td></tr><tr><td style="font-weight:bold;vertical-align:top;">wsgi_run_once</td><td style="vertical-align:top;">:</td><td><div>False</div></td></tr><tr><td style="font-weight:bold;vertical-align:top;">wsgi_url_scheme</td><td style="vertical-align:top;">:</td><td><div>http</div></td></tr><tr><td style="font-weight:bold;vertical-align:top;">wsgi_version</td><td style="vertical-align:top;">:</td><td><div><table><tr><td><div>1</div></td></tr><tr><td><div>0</div></td></tr></table></div></td></tr></table></div></td></tr><tr><td style="font-weight:bold;vertical-align:top;">extension</td><td style="vertical-align:top;">:</td><td><div>html</div></td></tr><tr><td style="font-weight:bold;vertical-align:top;">folder</td><td style="vertical-align:top;">:</td><td><div>C:\\Users\\Scorpa\\PycharmProjects\\untitled2\\web2py\\applications\\Chekailo\\</div></td></tr><tr><td style="font-weight:bold;vertical-align:top;">function</td><td style="vertical-align:top;">:</td><td><div>index</div></td></tr><tr><td style="font-weight:bold;vertical-align:top;">global_settings</td><td style="vertical-align:top;">:</td><td><div><table><tr><td style="font-weight:bold;vertical-align:top;">app_folders</td><td style="vertical-align:top;">:</td><td><div>set([&#x27;C:\\\\Users\\\\Scorpa\\\\PycharmProjects\\\\untitled2\\\\web2py\\\\applications\\\\CHKPportal\\\\&#x27;, &#x27;C:\\\\Users\\\\Scorpa\\\\PycharmProjects\\\\untitled2\\\\web2py\\\\applications\\\\Chekailo\\\\&#x27;, &#x27;C:\\\\Users\\\\Scorpa\\\\PycharmProjects\\\\untitled2\\\\web2py\\\\applications\\\\welcome\\\\&#x27;, &#x27;C:\\\\Users\\\\Scorpa\\\\PycharmProjects\\\\untitled2\\\\web2py\\\\applications\\\\admin\\\\&#x27;])</div></td></tr><tr><td style="font-weight:bold;vertical-align:top;">applications_parent</td><td style="vertical-align:top;">:</td><td><div>C:\\Users\\Scorpa\\PycharmProjects\\untitled2\\web2py</div></td></tr><tr><td style="font-weight:bold;vertical-align:top;">cmd_args</td><td style="vertical-align:top;">:</td><td><div><table></table></div></td></tr><tr><td style="font-weight:bold;vertical-align:top;">cmd_options</td><td style="vertical-align:top;">:</td><td><div>&lt;Values at 0x43d7850: {&#x27;verbose&#x27;: False, &#x27;ip&#x27;: &#x27;127.0.0.1&#x27;, &#x27;debuglevel&#x27;: 30, &#x27;with_scheduler&#x27;: False, &#x27;shutdown_timeout&#x27;: 5, &#x27;taskbar&#x27;: False, &#x27;with_coverage&#x27;: False, &#x27;pid_filename&#x27;: &#x27;httpserver.pid&#x27;, &#x27;maxthreads&#x27;: None, &#x27;softcron&#x27;: False, &#x27;server_name&#x27;: &#x27;Scorpa-PC&#x27;, &#x27;bpython&#x27;: False, &#x27;nogui&#x27;: False, &#x27;port&#x27;: 8000, &#x27;print_errors&#x27;: False, &#x27;extcron&#x27;: False, &#x27;runcron&#x27;: False, &#x27;run_system_tests&#x27;: False, &#x27;test&#x27;: None, &#x27;folder&#x27;: &#x27;C:\\\\Users\\\\Scorpa\\\\PycharmProjects\\\\untitled2\\\\web2py&#x27;, &#x27;config&#x27;: &#x27;&#x27;, &#x27;minthreads&#x27;: None, &#x27;shell&#x27;: None, &#x27;run&#x27;: &#x27;&#x27;, &#x27;log_filename&#x27;: &#x27;httpserver.log&#x27;, &#x27;profiler_dir&#x27;: None, &#x27;args&#x27;: [&#x27;&#x27;], &#x27;socket_timeout&#x27;: 5, &#x27;ssl_ca_certificate&#x27;: None, &#x27;scheduler&#x27;: None, &#x27;interfaces&#x27;: None, &#x27;ssl_private_key&#x27;: &#x27;&#x27;, &#x27;gae&#x27;: None, &#x27;password&#x27;: &#x27;******&#x27;, &#x27;request_queue_size&#x27;: 5, &#x27;ssl_certificate&#x27;: &#x27;&#x27;, &#x27;cronjob&#x27;: False, &#x27;numthreads&#x27;: None, &#x27;quiet&#x27;: False, &#x27;import_models&#x27;: False, &#x27;timeout&#x27;: 10, &#x27;plain&#x27;: False, &#x27;nobanner&#x27;: False}&gt;</div></td></tr><tr><td style="font-weight:bold;vertical-align:top;">db_sessions</td><td style="vertical-align:top;">:</td><td><div>set([])</div></td></tr><tr><td style="font-weight:bold;vertical-align:top;">debugging</td><td style="vertical-align:top;">:</td><td><div>False</div></td></tr><tr><td style="font-weight:bold;vertical-align:top;">gluon_parent</td><td style="vertical-align:top;">:</td><td><div>C:\\Users\\Scorpa\\PycharmProjects\\untitled2\\web2py</div></td></tr><tr><td style="font-weight:bold;vertical-align:top;">is_jython</td><td style="vertical-align:top;">:</td><td><div>False</div></td></tr><tr><td style="font-weight:bold;vertical-align:top;">is_py2</td><td style="vertical-align:top;">:</td><td><div>True</div></td></tr><tr><td style="font-weight:bold;vertical-align:top;">is_pypy</td><td style="vertical-align:top;">:</td><td><div>False</div></td></tr><tr><td style="font-weight:bold;vertical-align:top;">is_source</td><td style="vertical-align:top;">:</td><td><div>True</div></td></tr><tr><td style="font-weight:bold;vertical-align:top;">local_hosts</td><td style="vertical-align:top;">:</td><td><div><table><tr><td><div>fe80::5efe:169.254.152.183%5</div></td></tr><tr><td><div>::1</div></td></tr><tr><td><div>169.254.152.183</div></td></tr><tr><td><div>fe80::7d01:9d7:49f5:4bcf%26</div></td></tr><tr><td><div>fe80::d878:23ac:968e:27b3%12</div></td></tr><tr><td><div>127.0.0.1</div></td></tr><tr><td><div>172.16.32.250</div></td></tr><tr><td><div>fe80::5efe:172.16.32.250%20</div></td></tr><tr><td><div>fe80::5efe:192.168.153.1%21</div></td></tr><tr><td><div>fe80::5efe:169.254.45.213%13</div></td></tr><tr><td><div>Scorpa-PC</div></td></tr><tr><td><div>fe80::6043:9db8:30cd:98b7%3</div></td></tr><tr><td><div>2001:0:9d38:6abd:8d7:753c:a64d:eccc</div></td></tr><tr><td><div>fe80::8d7:753c:a64d:eccc%15</div></td></tr><tr><td><div>192.168.118.1</div></td></tr><tr><td><div>fe80::5efe:192.168.118.1%35</div></td></tr><tr><td><div>::ffff:127.0.0.1</div></td></tr><tr><td><div>192.168.153.1</div></td></tr><tr><td><div>169.254.45.213</div></td></tr><tr><td><div>fe80::80e7:6585:1e51:2dd5%28</div></td></tr><tr><td><div>fe80::5efe:169.254.157.80%32</div></td></tr><tr><td><div>169.254.157.80</div></td></tr></table></div></td></tr><tr><td style="font-weight:bold;vertical-align:top;">web2py_version</td><td style="vertical-align:top;">:</td><td><div>2.16.1-stable+timestamp.2017.11.14.05.54.25</div></td></tr></table></div></td></tr><tr><td style="font-weight:bold;vertical-align:top;">is_https</td><td style="vertical-align:top;">:</td><td><div>False</div></td></tr><tr><td style="font-weight:bold;vertical-align:top;">is_local</td><td style="vertical-align:top;">:</td><td><div>True</div></td></tr><tr><td style="font-weight:bold;vertical-align:top;">is_restful</td><td style="vertical-align:top;">:</td><td><div>False</div></td></tr><tr><td style="font-weight:bold;vertical-align:top;">is_scheduler</td><td style="vertical-align:top;">:</td><td><div>False</div></td></tr><tr><td style="font-weight:bold;vertical-align:top;">is_shell</td><td style="vertical-align:top;">:</td><td><div>False</div></td></tr><tr><td style="font-weight:bold;vertical-align:top;">now</td><td style="vertical-align:top;">:</td><td><div>datetime.datetime(2018, 4, 15, 23, 19, 47, 417000)</div></td></tr><tr><td style="font-weight:bold;vertical-align:top;">raw_args</td><td style="vertical-align:top;">:</td><td><div></div></td></tr><tr><td style="font-weight:bold;vertical-align:top;">raw_extension</td><td style="vertical-align:top;">:</td><td><div>None</div></td></tr><tr><td style="font-weight:bold;vertical-align:top;">url</td><td style="vertical-align:top;">:</td><td><div>/Chekailo/default/index</div></td></tr><tr><td style="font-weight:bold;vertical-align:top;">utcnow</td><td style="vertical-align:top;">:</td><td><div>datetime.datetime(2018, 4, 15, 20, 19, 47, 417000)</div></td></tr><tr><td style="font-weight:bold;vertical-align:top;">wsgi</td><td style="vertical-align:top;">:</td><td><div>&lt;gluon.main.LazyWSGI object at 0x0E88F550&gt;</div></td></tr></table></div>'
tRp60
sS'frames'
p61
(lp62
(dp63
S'file'
p64
S'C:\\Users\\Scorpa\\PycharmProjects\\untitled2\\web2py\\gluon\\restricted.py'
p65
sS'dump'
p66
(dp67
S'environment'
p68
S"{'A': <class 'gluon.html.A'>, 'ANY_OF': <class 'gluon.validators.ANY_OF'>, 'ASSIGNJS': <function ASSIGNJS>, 'AppConfig': <function AppConfig>, 'Auth': <class 'gluon.tools.Auth'>, 'B': <class 'gluon.html.B'>, 'BEAUTIFY': <class 'gluon.html.BEAUTIFY'>, 'BODY': <class 'gluon.html.BODY'>, 'BR': <class 'gluon.html.BR'>, 'BUTTON': <class 'gluon.html.BUTTON'>, ...}"
p69
sS'ccode'
p70
S'<code object <module> at 04853A88, file "C:\\User...tions\\Chekailo\\views\\default/index.html", line 1>'
p71
ssS'lnum'
p72
I219
sS'lines'
p73
(dp74
I214
S'    if environment is None:'
p75
sI215
S'        environment = {}'
p76
sI216
S"    environment['__file__'] = layer"
p77
sI217
S"    environment['__name__'] = '__restricted__'"
p78
sI218
S'    try:'
p79
sI219
S'        exec(ccode, environment)'
p80
sI220
S'    except HTTP:'
p81
sI221
S'        raise'
p82
sI222
S'    except RestrictedError:'
p83
sI223
S'        # do not encapsulate (obfuscate) the original RestrictedError'
p84
ssS'call'
p85
S'(ccode=<code object <module> at 04853A88, file "C:\\User...tions\\Chekailo\\views\\default/index.html", line 1>, environment={\'A\': <class \'gluon.html.A\'>, \'ANY_OF\': <class \'gluon.validators.ANY_OF\'>, \'ASSIGNJS\': <function ASSIGNJS>, \'AppConfig\': <function AppConfig>, \'Auth\': <class \'gluon.tools.Auth\'>, \'B\': <class \'gluon.html.B\'>, \'BEAUTIFY\': <class \'gluon.html.BEAUTIFY\'>, \'BODY\': <class \'gluon.html.BODY\'>, \'BR\': <class \'gluon.html.BR\'>, \'BUTTON\': <class \'gluon.html.BUTTON\'>, ...}, layer=r\'C:\\Users\\Scorpa\\PycharmProjects\\untitled2\\web2py\\applications\\Chekailo\\views\\default/index.html\', scode=\'response.write(\\\'<!DOCTYPE html>\\\\n<html lang="en"..."></script>\\\\n\\\\n</body>\\\\n</html>\\\\n\\\', escape=False)\')'
p86
sS'func'
p87
S'restricted'
p88
sa(dp89
g64
S'C:\\Users\\Scorpa\\PycharmProjects\\untitled2\\web2py\\applications\\Chekailo\\views\\default\\index.html'
p90
sg66
(dp91
S'div'
p92
S'undefined'
p93
ssg72
I100
sg73
(dp94
I96
S"response.write('\\n    ', escape=False)"
p95
sI97
S'response.write(\'\\n        <!-- Main ========================================= -->\\n        <!-- Begin page content -->\\n        <div class="right_col" role="main" style="min-height: 657px;">\\n            <div class="col-md-12">\\n            \', escape=False)'
p96
sI98
S"response.write('\\n        ', escape=False)"
p97
sI99
S'response.write(\'\\r\\n\\r\\n\\r\\n<div class="row">\\r\\n    <div class="col-md-12">\\r\\n        <div class="x_panel">\\r\\n            <div class="x_title">\\r\\n                <h2>Transaction Summary\\r\\n                    <small>Weekly progress</small>\\r\\n                </h2>\\r\\n                <div class="filter">\\r\\n                    <div id="reportrange" class="pull-right"\\r\\n                         style="background: #fff; cursor: pointer; padding: 5px 10px; border: 1px solid #ccc">\\r\\n                        <i class="glyphicon glyphicon-calendar fa fa-calendar"></i>\\r\\n                        <span>March 17, 2018 - April 15, 2018</span> <b class="caret"></b>\\r\\n                    </div>\\r\\n                </div>\\r\\n                <div class="clearfix"></div>\\r\\n            </div>\\r\\n            <div class="x_content">\\r\\n                <div class="col-md-9 col-sm-12 col-xs-12">\\r\\n                    <div class="demo-container" style="height:280px">\\r\\n                        <div id="chart_plot_02" class="demo-placeholder" style="padding: 0px; position: relative;">\\r\\n                            <canvas class="flot-base"\\r\\n                                    style="direction: ltr; position: absolute; left: 0px; top: 0px; width: 1170px; height: 280px;"\\r\\n                                    width="1170" height="280"></canvas>\\r\\n                            <div class="flot-text"\\r\\n                                 style="position: absolute; top: 0px; left: 0px; bottom: 0px; right: 0px; font-size: smaller; color: rgb(84, 84, 84);">\\r\\n                                <div class="flot-x-axis flot-x1-axis xAxis x1Axis"\\r\\n                                     style="position: absolute; top: 0px; left: 0px; bottom: 0px; right: 0px; display: block;">\\r\\n                                    <div class="flot-tick-label tickLabel"\\r\\n                                         style="position: absolute; max-width: 97px; top: 265px; left: 70px; text-align: center;">\\r\\n                                        16/04/18\\r\\n                                    </div>\\r\\n                                    <div class="flot-tick-label tickLabel"\\r\\n                                         style="position: absolute; max-width: 97px; top: 265px; left: 182px; text-align: center;">\\r\\n                                        18/04/18\\r\\n                                    </div>\\r\\n                                    <div class="flot-tick-label tickLabel"\\r\\n                                         style="position: absolute; max-width: 97px; top: 265px; left: 294px; text-align: center;">\\r\\n                                        20/04/18\\r\\n                                    </div>\\r\\n                                    <div class="flot-tick-label tickLabel"\\r\\n                                         style="position: absolute; max-width: 97px; top: 265px; left: 406px; text-align: center;">\\r\\n                                        22/04/18\\r\\n                                    </div>\\r\\n                                    <div class="flot-tick-label tickLabel"\\r\\n                                         style="position: absolute; max-width: 97px; top: 265px; left: 518px; text-align: center;">\\r\\n                                        24/04/18\\r\\n                                    </div>\\r\\n                                    <div class="flot-tick-label tickLabel"\\r\\n                                         style="position: absolute; max-width: 97px; top: 265px; left: 631px; text-align: center;">\\r\\n                                        26/04/18\\r\\n                                    </div>\\r\\n                                    <div class="flot-tick-label tickLabel"\\r\\n                                         style="position: absolute; max-width: 97px; top: 265px; left: 743px; text-align: center;">\\r\\n                                        28/04/18\\r\\n                                    </div>\\r\\n                                    <div class="flot-tick-label tickLabel"\\r\\n                                         style="position: absolute; max-width: 97px; top: 265px; left: 855px; text-align: center;">\\r\\n                                        30/04/18\\r\\n                                    </div>\\r\\n                                    <div class="flot-tick-label tickLabel"\\r\\n                                         style="position: absolute; max-width: 97px; top: 265px; left: 967px; text-align: center;">\\r\\n                                        02/05/18\\r\\n                                    </div>\\r\\n                                    <div class="flot-tick-label tickLabel"\\r\\n                                         style="position: absolute; max-width: 97px; top: 265px; left: 1079px; text-align: center;">\\r\\n                                        04/05/18\\r\\n                                    </div>\\r\\n                                </div>\\r\\n                                <div class="flot-y-axis flot-y1-axis yAxis y1Axis"\\r\\n                                     style="position: absolute; top: 0px; left: 0px; bottom: 0px; right: 0px; display: block;">\\r\\n                                    <div class="flot-tick-label tickLabel"\\r\\n                                         style="position: absolute; top: 247px; left: 12px; text-align: right;">0\\r\\n                                    </div>\\r\\n                                    <div class="flot-tick-label tickLabel"\\r\\n                                         style="position: absolute; top: 206px; left: 6px; text-align: right;">20\\r\\n                                    </div>\\r\\n                                    <div class="flot-tick-label tickLabel"\\r\\n                                         style="position: absolute; top: 165px; left: 6px; text-align: right;">40\\r\\n                                    </div>\\r\\n                                    <div class="flot-tick-label tickLabel"\\r\\n                                         style="position: absolute; top: 124px; left: 6px; text-align: right;">60\\r\\n                                    </div>\\r\\n                                    <div class="flot-tick-label tickLabel"\\r\\n                                         style="position: absolute; top: 83px; left: 6px; text-align: right;">80\\r\\n                                    </div>\\r\\n                                    <div class="flot-tick-label tickLabel"\\r\\n                                         style="position: absolute; top: 42px; left: 0px; text-align: right;">100\\r\\n                                    </div>\\r\\n                                    <div class="flot-tick-label tickLabel"\\r\\n                                         style="position: absolute; top: 1px; left: 0px; text-align: right;">120\\r\\n                                    </div>\\r\\n                                </div>\\r\\n                            </div>\\r\\n                            <canvas class="flot-overlay"\\r\\n                                    style="direction: ltr; position: absolute; left: 0px; top: 0px; width: 1170px; height: 280px;"\\r\\n                                    width="1170" height="280"></canvas>\\r\\n                            <div class="legend">\\r\\n                                <div style="position: absolute; width: 71px; height: 15px; top: -17px; right: 21px; background-color: rgb(255, 255, 255); opacity: 0.85;"></div>\\r\\n                                <table style="position:absolute;top:-17px;right:21px;;font-size:smaller;color:#3f3f3f">\\r\\n                                    <tbody>\\r\\n                                    <tr>\\r\\n                                        <td class="legendColorBox">\\r\\n                                            <div style="border:1px solid null;padding:1px">\\r\\n                                                <div style="width:4px;height:0;border:5px solid rgb(150,202,89);overflow:hidden"></div>\\r\\n                                            </div>\\r\\n                                        </td>\\r\\n                                        <td class="legendLabel">Email Sent&nbsp;&nbsp;</td>\\r\\n                                    </tr>\\r\\n                                    </tbody>\\r\\n                                </table>\\r\\n                            </div>\\r\\n                        </div>\\r\\n                    </div>\\r\\n                    <div class="tiles">\\r\\n                        <div class="col-md-4 tile">\\r\\n                            <span>\\xd0\\x92\\xd1\\x81\\xd0\\xb5\\xd0\\xb3\\xd0\\xbe CheckUP \\xd0\\xbe\\xd1\\x82\\xd1\\x87\\xd0\\xb5\\xd1\\x82\\xd0\\xbe\\xd0\\xb2</span>\\r\\n                            <h2>\', escape=False)'
p98
sI100
S'response.write(checkup_total)'
p99
sI101
S'response.write(\'</h2>\\r\\n                            <span class="sparkline11 graph" style="height: 160px;"><canvas width="198" height="40"\\r\\n                                                                                           style="display: inline-block; width: 198px; height: 40px; vertical-align: top;"></canvas></span>\\r\\n                        </div>\\r\\n                        <div class="col-md-4 tile">\\r\\n                            <span>\\xd0\\xa3\\xd1\\x87\\xd0\\xb0\\xd1\\x81\\xd1\\x82\\xd0\\xb2\\xd1\\x83\\xd1\\x8e\\xd1\\x89\\xd0\\xb8\\xd1\\x85 \\xd0\\xbf\\xd0\\xb0\\xd1\\x80\\xd1\\x82\\xd0\\xbd\\xd0\\xb5\\xd1\\x80\\xd0\\xbe\\xd0\\xb2</span>\\r\\n                            <h2>\', escape=False)'
p100
sI102
S'response.write(partners_total)'
p101
sI103
S'response.write(\'</h2>\\r\\n                            <span class="sparkline22 graph" style="height: 160px;"><canvas width="200" height="40"\\r\\n                                                                                           style="display: inline-block; width: 200px; height: 40px; vertical-align: top;"></canvas></span>\\r\\n                        </div>\\r\\n                        <div class="col-md-4 tile">\\r\\n                            <span>Total Sessions</span>\\r\\n                            <h2>231,809</h2>\\r\\n                            <span class="sparkline11 graph" style="height: 160px;"><canvas width="198" height="40"\\r\\n                                                                                           style="display: inline-block; width: 198px; height: 40px; vertical-align: top;"></canvas></span>\\r\\n                        </div>\\r\\n                    </div>\\r\\n\\r\\n                </div>\\r\\n\\r\\n\\r\\n            </div>\\r\\n        </div>\\r\\n    </div>\\r\\n</div>\', escape=False)'
p102
sI104
S"response.write('\\n        ', escape=False)"
p103
sI105
S"response.write('\\n        ', escape=False)"
p104
sI106
S"response.write(response.toolbar() if configuration.get('app.toolbar') else '')"
p105
sI107
S'response.write(\'\\n            </div>\\n        </div>\\n        <!-- /page content -->\\n\\n        <!-- footer content -->\\n        <footer>\\n            <div class="pull-right">\\n                Gentelella - Bootstrap Admin Template by <a href="https://colorlib.com">Colorlib</a>\\n            </div>\\n            <div class="clearfix"></div>\\n        </footer>\\n        <!-- /footer content -->\\n    </div>\\n    <!-- The javascript =============================== -->\\n    <script src="\', escape=False)'
p106
sI108
S"response.write(URL('static','js/bootstrap.min.js'))"
p107
sI109
S'response.write(\'"></script>\\n    <script src="\', escape=False)'
p108
sI110
S"response.write(URL('static','js/web2py-bootstrap4.js'))"
p109
sI91
S'    response.write(\'">\', escape=False)'
p110
sI92
S"    response.write(T('Sign up'))"
p111
sI93
S"    response.write('</a></li>\\n\\n                            ', escape=False)"
p112
sI94
S'    pass'
p113
sI95
S"response.write('\\n                            </ul>\\n                        </li>\\n                    </ul>\\n                </nav>\\n            </div>\\n        </div>\\n        <!-- /top navigation -->\\n        <!-- Masthead ===================================== -->\\n    ', escape=False)"
p114
ssg85
S'()'
p115
sg87
S'<module>'
p116
sasS'pyver'
p117
S'Python 2.7.13: C:\\Users\\Scorpa\\PycharmProjects\\untitled2\\venv\\Scripts\\python.exe (prefix: C:\\Users\\Scorpa\\PycharmProjects\\untitled2\\venv)'
p118
sS'session'
p119
g59
(S's\x07\n\x00\x00<div><table><tr><td style="font-weight:bold;vertical-align:top;">auth</td><td style="vertical-align:top;">:</td><td><div><table><tr><td style="font-weight:bold;vertical-align:top;">expiration</td><td style="vertical-align:top;">:</td><td><div>3600</div></td></tr><tr><td style="font-weight:bold;vertical-align:top;">hmac_key</td><td style="vertical-align:top;">:</td><td><div>3a5d2762-c0fb-484a-b93d-4b3d86be055a</div></td></tr><tr><td style="font-weight:bold;vertical-align:top;">last_visit</td><td style="vertical-align:top;">:</td><td><div>datetime.datetime(2018, 4, 15, 23, 19, 47, 417000)</div></td></tr><tr><td style="font-weight:bold;vertical-align:top;">remember_me</td><td style="vertical-align:top;">:</td><td><div>False</div></td></tr><tr><td style="font-weight:bold;vertical-align:top;">user</td><td style="vertical-align:top;">:</td><td><div><table><tr><td style="font-weight:bold;vertical-align:top;">email</td><td style="vertical-align:top;">:</td><td><div>asd@asd.ru</div></td></tr><tr><td style="font-weight:bold;vertical-align:top;">first_name</td><td style="vertical-align:top;">:</td><td><div>Valeriy</div></td></tr><tr><td style="font-weight:bold;vertical-align:top;">id</td><td style="vertical-align:top;">:</td><td><div>11L</div></td></tr><tr><td style="font-weight:bold;vertical-align:top;">last_name</td><td style="vertical-align:top;">:</td><td><div>Denisov</div></td></tr><tr><td style="font-weight:bold;vertical-align:top;">registration_id</td><td style="vertical-align:top;">:</td><td><div></div></td></tr><tr><td style="font-weight:bold;vertical-align:top;">registration_key</td><td style="vertical-align:top;">:</td><td><div></div></td></tr><tr><td style="font-weight:bold;vertical-align:top;">reset_password_key</td><td style="vertical-align:top;">:</td><td><div></div></td></tr></table></div></td></tr><tr><td style="font-weight:bold;vertical-align:top;">user_groups</td><td style="vertical-align:top;">:</td><td><div><table><tr><td style="font-weight:bold;vertical-align:top;">1</td><td style="vertical-align:top;">:</td><td><div>user_11</div></td></tr></table></div></td></tr></table></div></td></tr><tr><td style="font-weight:bold;vertical-align:top;">flash</td><td style="vertical-align:top;">:</td><td><div>None</div></td></tr><tr><td style="font-weight:bold;vertical-align:top;">last_orderby</td><td style="vertical-align:top;">:</td><td><div>None</div></td></tr><tr><td style="font-weight:bold;vertical-align:top;">last_query</td><td style="vertical-align:top;">:</td><td><div>db.t_checkup.id&gt;0</div></td></tr></table></div>'
tRp120
sS'etype'
p121
S"<type 'exceptions.NameError'>"
p122
sS'date'
p123
S'Sun Apr 15 23:19:47 2018'
p124
sS'response'
p125
g59
(S's.\x1d\x00\x00<div><table><tr><td style="font-weight:bold;vertical-align:top;">body</td><td style="vertical-align:top;">:</td><td><div>&lt;cStringIO.StringO object at 0x0C916900&gt;</div></td></tr><tr><td style="font-weight:bold;vertical-align:top;">cookies</td><td style="vertical-align:top;">:</td><td><div><table><tr><td style="font-weight:bold;vertical-align:top;">session_id_chekailo</td><td style="vertical-align:top;">:</td><td><div>127.0.0.1-8da138d6-e636-4b12-b8d9-0ec076840060<table><tr><td style="font-weight:bold;vertical-align:top;">comment</td><td style="vertical-align:top;">:</td><td><div></div></td></tr><tr><td style="font-weight:bold;vertical-align:top;">domain</td><td style="vertical-align:top;">:</td><td><div></div></td></tr><tr><td style="font-weight:bold;vertical-align:top;">expires</td><td style="vertical-align:top;">:</td><td><div></div></td></tr><tr><td style="font-weight:bold;vertical-align:top;">httponly</td><td style="vertical-align:top;">:</td><td><div></div></td></tr><tr><td style="font-weight:bold;vertical-align:top;">max-age</td><td style="vertical-align:top;">:</td><td><div></div></td></tr><tr><td style="font-weight:bold;vertical-align:top;">path</td><td style="vertical-align:top;">:</td><td><div>/</div></td></tr><tr><td style="font-weight:bold;vertical-align:top;">secure</td><td style="vertical-align:top;">:</td><td><div></div></td></tr><tr><td style="font-weight:bold;vertical-align:top;">version</td><td style="vertical-align:top;">:</td><td><div></div></td></tr></table></div></td></tr></table></div></td></tr><tr><td style="font-weight:bold;vertical-align:top;">delimiters</td><td style="vertical-align:top;">:</td><td><div><table><tr><td><div>{{</div></td></tr><tr><td><div>}}</div></td></tr></table></div></td></tr><tr><td style="font-weight:bold;vertical-align:top;">files</td><td style="vertical-align:top;">:</td><td><div><table></table></div></td></tr><tr><td style="font-weight:bold;vertical-align:top;">flash</td><td style="vertical-align:top;">:</td><td><div></div></td></tr><tr><td style="font-weight:bold;vertical-align:top;">form_label_separator</td><td style="vertical-align:top;">:</td><td><div></div></td></tr><tr><td style="font-weight:bold;vertical-align:top;">formstyle</td><td style="vertical-align:top;">:</td><td><div>bootstrap4_inline</div></td></tr><tr><td style="font-weight:bold;vertical-align:top;">generic_patterns</td><td style="vertical-align:top;">:</td><td><div><table><tr><td><div>*</div></td></tr></table></div></td></tr><tr><td style="font-weight:bold;vertical-align:top;">google_analytics_id</td><td style="vertical-align:top;">:</td><td><div>None</div></td></tr><tr><td style="font-weight:bold;vertical-align:top;">headers</td><td style="vertical-align:top;">:</td><td><div><table><tr><td style="font-weight:bold;vertical-align:top;">X-Powered-By</td><td style="vertical-align:top;">:</td><td><div>web2py</div></td></tr></table></div></td></tr><tr><td style="font-weight:bold;vertical-align:top;">menu</td><td style="vertical-align:top;">:</td><td><div><table><tr><td><div><table><tr><td><div>\xf0\x9f\x8f\xa0 Home</div></td></tr><tr><td><div>True</div></td></tr><tr><td><div>/Chekailo/default/index</div></td></tr><tr><td><div><table></table></div></td></tr></table></div></td></tr><tr><td><div><table><tr><td><div>\xe2\x9e\x95Add CheckUP</div></td></tr><tr><td><div>False</div></td></tr><tr><td><div>/Chekailo/default/checkup_manage</div></td></tr><tr><td><div><table></table></div></td></tr></table></div></td></tr></table></div></td></tr><tr><td style="font-weight:bold;vertical-align:top;">meta</td><td style="vertical-align:top;">:</td><td><div><table><tr><td style="font-weight:bold;vertical-align:top;">author</td><td style="vertical-align:top;">:</td><td><div>Scorpa &lt;Scorpa@e.com&gt;</div></td></tr><tr><td style="font-weight:bold;vertical-align:top;">description</td><td style="vertical-align:top;">:</td><td><div></div></td></tr><tr><td style="font-weight:bold;vertical-align:top;">generator</td><td style="vertical-align:top;">:</td><td><div>Web2py Web Framework</div></td></tr><tr><td style="font-weight:bold;vertical-align:top;">keywords</td><td style="vertical-align:top;">:</td><td><div></div></td></tr></table></div></td></tr><tr><td style="font-weight:bold;vertical-align:top;">models_to_run</td><td style="vertical-align:top;">:</td><td><div><table><tr><td><div>^\\w+\\.py$</div></td></tr><tr><td><div>^default/\\w+\\.py$</div></td></tr><tr><td><div>^default/index/\\w+\\.py$</div></td></tr></table></div></td></tr><tr><td style="font-weight:bold;vertical-align:top;">postprocessing</td><td style="vertical-align:top;">:</td><td><div><table></table></div></td></tr><tr><td style="font-weight:bold;vertical-align:top;">session_client</td><td style="vertical-align:top;">:</td><td><div>127.0.0.1</div></td></tr><tr><td style="font-weight:bold;vertical-align:top;">session_cookie_compression_level</td><td style="vertical-align:top;">:</td><td><div>None</div></td></tr><tr><td style="font-weight:bold;vertical-align:top;">session_cookie_expires</td><td style="vertical-align:top;">:</td><td><div>None</div></td></tr><tr><td style="font-weight:bold;vertical-align:top;">session_data_name</td><td style="vertical-align:top;">:</td><td><div>session_data_chekailo</div></td></tr><tr><td style="font-weight:bold;vertical-align:top;">session_file</td><td style="vertical-align:top;">:</td><td><div>&lt;open file &#x27;C:\\\\Users\\\\Scorpa\\\\PycharmProjects\\\\untitled2\\\\web2py\\\\applications\\\\Chekailo\\\\sessions\\\\1d7\\\\0f8\\\\127.0.0.1-8da138d6-e636-4b12-b8d9-0ec076840060&#x27;, mode &#x27;rb+&#x27; at 0x0C21A128&gt;</div></td></tr><tr><td style="font-weight:bold;vertical-align:top;">session_filename</td><td style="vertical-align:top;">:</td><td><div>C:\\Users\\Scorpa\\PycharmProjects\\untitled2\\web2py\\applications\\Chekailo\\sessions\\127.0.0.1-8da138d6-e636-4b12-b8d9-0ec076840060</div></td></tr><tr><td style="font-weight:bold;vertical-align:top;">session_hash</td><td style="vertical-align:top;">:</td><td><div>b1d68a569647c4444de9bc3ddcb2b85d</div></td></tr><tr><td style="font-weight:bold;vertical-align:top;">session_id</td><td style="vertical-align:top;">:</td><td><div>127.0.0.1-8da138d6-e636-4b12-b8d9-0ec076840060</div></td></tr><tr><td style="font-weight:bold;vertical-align:top;">session_id_name</td><td style="vertical-align:top;">:</td><td><div>session_id_chekailo</div></td></tr><tr><td style="font-weight:bold;vertical-align:top;">session_locked</td><td style="vertical-align:top;">:</td><td><div>True</div></td></tr><tr><td style="font-weight:bold;vertical-align:top;">session_masterapp</td><td style="vertical-align:top;">:</td><td><div>Chekailo</div></td></tr><tr><td style="font-weight:bold;vertical-align:top;">session_new</td><td style="vertical-align:top;">:</td><td><div>False</div></td></tr><tr><td style="font-weight:bold;vertical-align:top;">session_storage_type</td><td style="vertical-align:top;">:</td><td><div>file</div></td></tr><tr><td style="font-weight:bold;vertical-align:top;">status</td><td style="vertical-align:top;">:</td><td><div>200</div></td></tr><tr><td style="font-weight:bold;vertical-align:top;">subtitle</td><td style="vertical-align:top;">:</td><td><div>Scorpa</div></td></tr><tr><td style="font-weight:bold;vertical-align:top;">title</td><td style="vertical-align:top;">:</td><td><div>Chekailo</div></td></tr><tr><td style="font-weight:bold;vertical-align:top;">view</td><td style="vertical-align:top;">:</td><td><div>default/index.html</div></td></tr></table></div>'
tRp126
sS'locals'
p127
(dp128
S'PY2'
p129
S'True'
p130
sS'OBJECT'
p131
S"<class 'gluon.html.OBJECT'>"
p132
sS'SQLDB'
p133
S"<class 'pydal.base.DAL'>"
p134
sg119
S"<Storage {'last_query': 'db.t_checkup.id>0', '_f...gin]': ['482188c4-3ec4-424b-b8ba-e90012ae92dc']}>"
p135
sS'LINK'
p136
S"<class 'gluon.html.LINK'>"
p137
sS'BR'
p138
S"<class 'gluon.html.BR'>"
p139
sS'local_import'
p140
S'<function <lambda>>'
p141
sS'OPTGROUP'
p142
S"<class 'gluon.html.OPTGROUP'>"
p143
sS'__package__'
p144
S'None'
p145
sS'PRE'
p146
S"<class 'gluon.html.PRE'>"
p147
sS'IS_INT_IN_RANGE'
p148
S"<class 'gluon.validators.IS_INT_IN_RANGE'>"
p149
sS'to_bytes'
p150
S'<function to_bytes>'
p151
sS'IS_LOWER'
p152
S"<class 'gluon.validators.IS_LOWER'>"
p153
sS'IS_STRONG'
p154
S"<class 'gluon.validators.IS_STRONG'>"
p155
sS'cache'
p156
S'<gluon.cache.Cache object>'
p157
sS'IS_IN_DB'
p158
S"<class 'gluon.validators.IS_IN_DB'>"
p159
sS'TAG'
p160
S'<gluon.html.__TAG__ object>'
p161
sS'SQLField'
p162
S"<class 'pydal.objects.Field'>"
p163
sS'mail'
p164
S'<gluon.tools.Mail object>'
p165
sS'BODY'
p166
S"<class 'gluon.html.BODY'>"
p167
sS'IS_DATE_IN_RANGE'
p168
S"<class 'gluon.validators.IS_DATE_IN_RANGE'>"
p169
sS'IFRAME'
p170
S"<class 'gluon.html.IFRAME'>"
p171
sS'URL'
p172
S'<function URL>'
p173
sS'__file__'
p174
S"r'C:\\Users\\Scorpa\\PycharmProjects\\untitled2\\web2py\\applications\\Chekailo\\views\\default/index.html'"
p175
sS'db'
p176
S'<DAL uri="sqlite://storage.sqlite">'
p177
sS'auth'
p178
S'<gluon.tools.Auth object>'
p179
sS'P'
S"<class 'gluon.html.P'>"
p180
sS'TFOOT'
p181
S"<class 'gluon.html.TFOOT'>"
p182
sS'iteritems'
p183
S'<function <lambda>>'
p184
sS'XHTML'
p185
S"<class 'gluon.html.XHTML'>"
p186
sS'ON'
p187
g130
sS'OL'
p188
S"<class 'gluon.html.OL'>"
p189
sS'TEXTAREA'
p190
S"<class 'gluon.html.TEXTAREA'>"
p191
sS'settings'
p192
S"<Storage {'layout_theme': 'Default', 'subtitle':...l_server': 'localhost', 'login_method': 'local'}>"
p193
sS'MENU'
p194
S"<class 'gluon.html.MENU'>"
p195
sS'IS_IMAGE'
p196
S"<class 'gluon.validators.IS_IMAGE'>"
p197
sS'EM'
p198
S"<class 'gluon.html.EM'>"
p199
sS'CODE'
p200
S"<class 'gluon.html.CODE'>"
p201
sS'HTTP'
p202
S"<class 'gluon.http.HTTP'>"
p203
sS'HR'
p204
S"<class 'gluon.html.HR'>"
p205
sS'IS_DATETIME'
p206
S"<class 'gluon.validators.IS_DATETIME'>"
p207
sS'Storage'
p208
S"<class 'gluon.storage.Storage'>"
p209
sS'STYLE'
p210
S"<class 'gluon.html.STYLE'>"
p211
sS'LABEL'
p212
S"<class 'gluon.html.LABEL'>"
p213
sS'CLEANUP'
p214
S"<class 'gluon.validators.CLEANUP'>"
p215
sS'SELECT'
p216
S"<class 'gluon.html.SELECT'>"
p217
sS'CENTER'
p218
S"<class 'gluon.html.CENTER'>"
p219
sS'Auth'
p220
S"<class 'gluon.tools.Auth'>"
p221
sS'__builtins__'
p222
S"{'ArithmeticError': <type 'exceptions.ArithmeticError'>, 'AssertionError': <type 'exceptions.AssertionError'>, 'AttributeError': <type 'exceptions.AttributeError'>, 'BaseException': <type 'exceptions.BaseException'>, 'BufferError': <type 'exceptions.BufferError'>, 'BytesWarning': <type 'exceptions.BytesWarning'>, 'DeprecationWarning': <type 'exceptions.DeprecationWarning'>, 'EOFError': <type 'exceptions.EOFError'>, 'Ellipsis': Ellipsis, 'EnvironmentError': <type 'exceptions.EnvironmentError'>, ...}"
p223
sS'HTML'
p224
S"<class 'gluon.html.HTML'>"
p225
sS'SQLFORM'
p226
S"<class 'gluon.sqlhtml.SQLFORM'>"
p227
sS'_item'
p228
S"(<lazyT '\xe2\x9e\x95Add CheckUP'>, False, '/Chekailo/default/checkup_manage', [])"
p229
sS'LOAD'
p230
S'<function LOAD>'
p231
sS'redirect'
p232
S'<function redirect>'
p233
sS'FIELDSET'
p234
S"<class 'gluon.html.FIELDSET'>"
p235
sS'IS_EQUAL_TO'
p236
S"<class 'gluon.validators.IS_EQUAL_TO'>"
p237
sS'embed64'
p238
S'<function embed64>'
p239
sS'IS_LIST_OF'
p240
S"<class 'gluon.validators.IS_LIST_OF'>"
p241
sS'INPUT'
p242
S"<class 'gluon.html.INPUT'>"
p243
sS'EMBED'
p244
S"<class 'gluon.html.EMBED'>"
p245
sS'configuration'
p246
S"{'host': {'names': 'localhost:*, 127.0.0.1:*, *:...': 'sqlite://storage.sqlite', 'pool_size': '10'}}"
p247
sS'FORM'
p248
S"<class 'gluon.html.FORM'>"
p249
sS'H2'
p250
S"<class 'gluon.html.H2'>"
p251
sS'H3'
p252
S"<class 'gluon.html.H3'>"
p253
sS'AppConfig'
p254
S'<function AppConfig>'
p255
sS'H1'
p256
S"<class 'gluon.html.H1'>"
p257
sS'H6'
p258
S"<class 'gluon.html.H6'>"
p259
sS'H4'
p260
S"<class 'gluon.html.H4'>"
p261
sS'H5'
p262
S"<class 'gluon.html.H5'>"
p263
sS'UL'
p264
S"<class 'gluon.html.UL'>"
p265
sS'IS_UPPER'
p266
S"<class 'gluon.validators.IS_UPPER'>"
p267
sS'xmlescape'
p268
S'<function xmlescape>'
p269
sS'IS_TIME'
p270
S"<class 'gluon.validators.IS_TIME'>"
p271
sS'OPTION'
p272
S"<class 'gluon.html.OPTION'>"
p273
sS'TITLE'
p274
S"<class 'gluon.html.TITLE'>"
p275
sS'CRYPT'
p276
S"<class 'gluon.validators.CRYPT'>"
p277
sS'IS_EMPTY_OR'
p278
S"<class 'gluon.validators.IS_EMPTY_OR'>"
p279
sS'MARKMIN'
p280
S"<class 'gluon.html.MARKMIN'>"
p281
sS'__name__'
p282
S"'__restricted__'"
p283
sS'STRONG'
p284
S"<class 'gluon.html.STRONG'>"
p285
sS'COL'
p286
S"<class 'gluon.html.COL'>"
p287
sS'SCRIPT'
p288
S"<class 'gluon.html.SCRIPT'>"
p289
sS'TABLE'
p290
S"<class 'gluon.html.TABLE'>"
p291
sS'IS_IPV4'
p292
S"<class 'gluon.validators.IS_IPV4'>"
p293
sS'IS_LENGTH'
p294
S"<class 'gluon.validators.IS_LENGTH'>"
p295
sS'IS_IPV6'
p296
S"<class 'gluon.validators.IS_IPV6'>"
p297
sS'XML'
p298
S"<class 'gluon.html.XML'>"
p299
sS'B'
S"<class 'gluon.html.B'>"
p300
sS'IMG'
p301
S"<class 'gluon.html.IMG'>"
p302
sS'SQLTABLE'
p303
S"<class 'gluon.sqlhtml.SQLTABLE'>"
p304
sS'reduce'
p305
S'<built-in function reduce>'
p306
sS'IS_MATCH'
p307
S"<class 'gluon.validators.IS_MATCH'>"
p308
sS'IS_ALPHANUMERIC'
p309
S"<class 'gluon.validators.IS_ALPHANUMERIC'>"
p310
sS'SPAN'
p311
S"<class 'gluon.html.SPAN'>"
p312
sS'IS_JSON'
p313
S"<class 'gluon.validators.IS_JSON'>"
p314
sS'IS_IPADDRESS'
p315
S"<class 'gluon.validators.IS_IPADDRESS'>"
p316
sS'IS_SLUG'
p317
S"<class 'gluon.validators.IS_SLUG'>"
p318
sS'BEAUTIFY'
p319
S"<class 'gluon.html.BEAUTIFY'>"
p320
sS'META'
p321
S"<class 'gluon.html.META'>"
p322
sS'BUTTON'
p323
S"<class 'gluon.html.BUTTON'>"
p324
sS'IS_DATE'
p325
S"<class 'gluon.validators.IS_DATE'>"
p326
sS'IS_EMAIL'
p327
S"<class 'gluon.validators.IS_EMAIL'>"
p328
sS'IS_NOT_EMPTY'
p329
S"<class 'gluon.validators.IS_NOT_EMPTY'>"
p330
sS'xrange'
p331
S"<type 'xrange'>"
p332
sS'TBODY'
p333
S"<class 'gluon.html.TBODY'>"
p334
sS'CAT'
p335
S"<class 'gluon.html.CAT'>"
p336
sS'Field'
p337
S"<class 'pydal.objects.Field'>"
p338
sS'IS_LIST_OF_EMAILS'
p339
S"<class 'gluon.validators.IS_LIST_OF_EMAILS'>"
p340
sg58
S"<Storage {'_vars': None, 'function': 'index', 'c...s\\\\untitled2\\\\web2py\\\\applications\\\\Chekailo\\\\'}>"
p341
sS'DIV'
p342
S"<class 'gluon.html.DIV'>"
p343
sS'LEGEND'
p344
S"<class 'gluon.html.LEGEND'>"
p345
sS'to_native'
p346
S'<function to_native>'
p347
sS'COLGROUP'
p348
S"<class 'gluon.html.COLGROUP'>"
p349
sS'DAL'
p350
S"<class 'pydal.base.DAL'>"
p351
sS'ASSIGNJS'
p352
S'<function ASSIGNJS>'
p353
sS'TR'
p354
S"<class 'gluon.html.TR'>"
p355
sS'LI'
p356
S"<class 'gluon.html.LI'>"
p357
sS'TH'
p358
S"<class 'gluon.html.TH'>"
p359
sS'TD'
p360
S"<class 'gluon.html.TD'>"
p361
sS'IS_URL'
p362
S"<class 'gluon.validators.IS_URL'>"
p363
sS'A'
S"<class 'gluon.html.A'>"
p364
sS'HEAD'
p365
S"<class 'gluon.html.HEAD'>"
p366
sS'IS_DATETIME_IN_RANGE'
p367
S"<class 'gluon.validators.IS_DATETIME_IN_RANGE'>"
p368
sS'populate'
p369
S'<function populate>'
p370
sS'I'
S"<class 'gluon.html.I'>"
p371
sS'IS_NOT_IN_DB'
p372
S"<class 'gluon.validators.IS_NOT_IN_DB'>"
p373
sg125
S"<Storage {'body': <cStringIO.StringO object at 0...a> at 0x0ED98DB0>, 'view': 'default/index.html'}>"
p374
sS'THEAD'
p375
S"<class 'gluon.html.THEAD'>"
p376
sS'ANY_OF'
p377
S"<class 'gluon.validators.ANY_OF'>"
p378
sS'IS_NULL_OR'
p379
S"<class 'gluon.validators.IS_EMPTY_OR'>"
p380
sS'IS_FLOAT_IN_RANGE'
p381
S"<class 'gluon.validators.IS_FLOAT_IN_RANGE'>"
p382
sS'IS_EXPR'
p383
S"<class 'gluon.validators.IS_EXPR'>"
p384
sS'T'
S'<gluon.languages.translator object>'
p385
sS'IS_IN_SET'
p386
S"<class 'gluon.validators.IS_IN_SET'>"
p387
sS'IS_UPLOAD_FILENAME'
p388
S"<class 'gluon.validators.IS_UPLOAD_FILENAME'>"
p389
sS'TT'
p390
S"<class 'gluon.html.TT'>"
p391
sS'IS_DECIMAL_IN_RANGE'
p392
S"<class 'gluon.validators.IS_DECIMAL_IN_RANGE'>"
p393
sssS'traceback'
p394
S'Traceback (most recent call last):\n  File "C:\\Users\\Scorpa\\PycharmProjects\\untitled2\\web2py\\gluon\\restricted.py", line 219, in restricted\n    exec(ccode, environment)\n  File "C:\\Users\\Scorpa\\PycharmProjects\\untitled2\\web2py\\applications\\Chekailo\\views\\default/index.html", line 100, in <module>\n    <div class="legend">\nNameError: name \'checkup_total\' is not defined\n'
p395
s.